(dp0
Vengine
p1
S'pdflatex'
p2
sVpackages
p3
c__builtin__
set
p4
((lp5
tp6
Rp7
sVfiles_with_guttermarks
p8
g4
((lp9
V/Users/lalitiaapsari/Documents/01DH/S2/Thesis/uistyle/./laporan_setting.tex
p10
aS'laporan_setting.tex'
p11
atp12
Rp13
sVsynctex
p14
I01
s.