(dp0
Vengine
p1
S'pdflatex'
p2
sVpackages
p3
c__builtin__
set
p4
((lp5
Vuithesis
p6
atp7
Rp8
sVfiles_with_guttermarks
p9
g4
((lp10
V/Users/lalitiaapsari/Documents/01DH/S2/Thesis/uistyle/./pengantar.tex
p11
aV/Users/lalitiaapsari/Documents/01DH/S2/Thesis/uistyle/bab4.tex
p12
aV/Users/lalitiaapsari/Documents/01DH/S2/Thesis/uistyle/bab2.tex
p13
aV/Users/lalitiaapsari/Documents/01DH/S2/Thesis/uistyle/bab5.tex
p14
aV/Users/lalitiaapsari/Documents/01DH/S2/Thesis/uistyle/pengantar.tex
p15
aV/Users/lalitiaapsari/Documents/01DH/S2/Thesis/uistyle/bab3.tex
p16
aS'thesis.tex'
p17
atp18
Rp19
sVsynctex
p20
I01
s.